; Function Attrs: mustprogress nofree norecurse nosync nounwind willreturn memory(readwrite, argmem: none, inaccessiblemem: none) uwtable
define dso_local void @assign_checkpoint_completion_target(double noundef %0, ptr noundef readnone captures(none) %1) local_unnamed_addr #7 {
  store double %0, ptr @CheckPointCompletionTarget, align 8
  %3 = load i32, ptr @max_wal_size_mb, align 4
  %4 = load i32, ptr @wal_segment_size, align 4
  %5 = sdiv i32 %4, 1048576
  %6 = sdiv i32 %3, %5
  %7 = sitofp i32 %6 to double
  %8 = fadd double %0, 1.000000e+00
  %9 = fdiv double %7, %8
  %10 = fptosi double %9 to i32
  %spec.store.select.i = tail call i32 @llvm.smax.i32(i32 %10, i32 1)
  store i32 %spec.store.select.i, ptr @CheckPointSegments, align 4
  ret void
}